target datalayout = "e-m:e-p270:32:32-p271:32:32-p272:64:64-i64:64-i128:128-f80:128-n8:16:32:64-S128"
target triple = "x86_64-pc-linux-gnu"

%struct.rdp_field_info_t = type { ptr, i32, ptr, i32, i32, ptr }

@.str.696 = private unnamed_addr constant [15 x i8] c"Invalid length\00", align 1
@.str.719 = private unnamed_addr constant [29 x i8] c"%s:%u: failed assertion \22%s\22\00", align 1
@.str.720 = private unnamed_addr constant [29 x i8] c"epan/dissectors/packet-rdp.c\00", align 1
@.str.721 = private unnamed_addr constant [9 x i8] c"len == 4\00", align 1
@.str.722 = private unnamed_addr constant [13 x i8] c"Tree Error!!\00", align 1

; Function Attrs: null_pointer_is_valid sspstrong uwtable
define internal i32 @dissect_rdp_fields(ptr noundef %0, i32 noundef %1, ptr noundef %2, ptr noundef %3, ptr noundef %4, i32 noundef %5) #0 {
  %7 = alloca ptr, align 8
  %8 = alloca i32, align 4
  %9 = alloca ptr, align 8
  %10 = alloca ptr, align 8
  %11 = alloca ptr, align 8
  %12 = alloca i32, align 4
  %13 = alloca ptr, align 8
  %14 = alloca i32, align 4
  %15 = alloca i32, align 4
  %16 = alloca i32, align 4
  %17 = alloca i32, align 4
  %18 = alloca ptr, align 8
  %19 = alloca ptr, align 8
  store ptr %0, ptr %7, align 8
  store i32 %1, ptr %8, align 4
  store ptr %2, ptr %9, align 8
  store ptr %3, ptr %10, align 8
  store ptr %4, ptr %11, align 8
  store i32 %5, ptr %12, align 4
  call void @llvm.lifetime.start.p0(i64 8, ptr %13) #15
  call void @llvm.lifetime.start.p0(i64 4, ptr %14) #15
  call void @llvm.lifetime.start.p0(i64 4, ptr %15) #15
  %20 = load i32, ptr %8, align 4
  store i32 %20, ptr %15, align 4
  call void @llvm.lifetime.start.p0(i64 4, ptr %16) #15
  store i32 0, ptr %16, align 4
  call void @llvm.lifetime.start.p0(i64 4, ptr %17) #15
  %21 = load ptr, ptr %9, align 8
  call void @increment_dissection_depth(ptr noundef %21)
  br label %22

22:                                               ; preds = %206, %6
  %23 = load ptr, ptr %11, align 8
  %24 = getelementptr inbounds nuw %struct.rdp_field_info_t, ptr %23, i32 0, i32 0
  %25 = load ptr, ptr %24, align 8
  %26 = icmp ne ptr %25, null
  br i1 %26, label %27, label %209

27:                                               ; preds = %22
  %28 = load ptr, ptr %11, align 8
  store ptr %28, ptr %13, align 8
  %29 = load ptr, ptr %13, align 8
  %30 = getelementptr inbounds nuw %struct.rdp_field_info_t, ptr %29, i32 0, i32 1
  %31 = load i32, ptr %30, align 8
  %32 = icmp eq i32 %31, 0
  br i1 %32, label %33, label %43

33:                                               ; preds = %27
  %34 = load ptr, ptr %13, align 8
  %35 = getelementptr inbounds nuw %struct.rdp_field_info_t, ptr %34, i32 0, i32 2
  %36 = load ptr, ptr %35, align 8
  %37 = icmp ne ptr %36, null
  br i1 %37, label %38, label %43

38:                                               ; preds = %33
  %39 = load ptr, ptr %13, align 8
  %40 = getelementptr inbounds nuw %struct.rdp_field_info_t, ptr %39, i32 0, i32 2
  %41 = load ptr, ptr %40, align 8
  %42 = load i32, ptr %41, align 4
  store i32 %42, ptr %14, align 4
  br label %94

43:                                               ; preds = %33, %27
  %44 = load ptr, ptr %13, align 8
  %45 = getelementptr inbounds nuw %struct.rdp_field_info_t, ptr %44, i32 0, i32 1
  %46 = load i32, ptr %45, align 8
  store i32 %46, ptr %14, align 4
  %47 = load ptr, ptr %13, align 8
  %48 = getelementptr inbounds nuw %struct.rdp_field_info_t, ptr %47, i32 0, i32 2
  %49 = load ptr, ptr %48, align 8
  %50 = icmp ne ptr %49, null
  br i1 %50, label %51, label %93

51:                                               ; preds = %43
  %52 = load ptr, ptr %13, align 8
  %53 = getelementptr inbounds nuw %struct.rdp_field_info_t, ptr %52, i32 0, i32 1
  %54 = load i32, ptr %53, align 8
  %55 = icmp sle i32 %54, 4
  br i1 %55, label %56, label %93

56:                                               ; preds = %51
  %57 = load ptr, ptr %13, align 8
  %58 = getelementptr inbounds nuw %struct.rdp_field_info_t, ptr %57, i32 0, i32 1
  %59 = load i32, ptr %58, align 8
  switch i32 %59, label %83 [
    i32 1, label %60
    i32 2, label %68
    i32 4, label %76
  ]

60:                                               ; preds = %56
  %61 = load ptr, ptr %7, align 8
  %62 = load i32, ptr %8, align 4
  %63 = call zeroext i8 @tvb_get_uint8(ptr noundef %61, i32 noundef %62)
  %64 = zext i8 %63 to i32
  %65 = load ptr, ptr %13, align 8
  %66 = getelementptr inbounds nuw %struct.rdp_field_info_t, ptr %65, i32 0, i32 2
  %67 = load ptr, ptr %66, align 8
  store i32 %64, ptr %67, align 4
  br label %84

68:                                               ; preds = %56
  %69 = load ptr, ptr %7, align 8
  %70 = load i32, ptr %8, align 4
  %71 = call zeroext i16 @tvb_get_letohs(ptr noundef %69, i32 noundef %70)
  %72 = zext i16 %71 to i32
  %73 = load ptr, ptr %13, align 8
  %74 = getelementptr inbounds nuw %struct.rdp_field_info_t, ptr %73, i32 0, i32 2
  %75 = load ptr, ptr %74, align 8
  store i32 %72, ptr %75, align 4
  br label %84

76:                                               ; preds = %56
  %77 = load ptr, ptr %7, align 8
  %78 = load i32, ptr %8, align 4
  %79 = call i32 @tvb_get_letohl(ptr noundef %77, i32 noundef %78)
  %80 = load ptr, ptr %13, align 8
  %81 = getelementptr inbounds nuw %struct.rdp_field_info_t, ptr %80, i32 0, i32 2
  %82 = load ptr, ptr %81, align 8
  store i32 %79, ptr %82, align 4
  br label %84

83:                                               ; preds = %56
  call void (ptr, ...) @proto_report_dissector_bug(ptr noundef @.str.696) #16
  unreachable

84:                                               ; preds = %76, %68, %60
  %85 = load ptr, ptr %13, align 8
  %86 = getelementptr inbounds nuw %struct.rdp_field_info_t, ptr %85, i32 0, i32 3
  %87 = load i32, ptr %86, align 8
  %88 = load ptr, ptr %13, align 8
  %89 = getelementptr inbounds nuw %struct.rdp_field_info_t, ptr %88, i32 0, i32 2
  %90 = load ptr, ptr %89, align 8
  %91 = load i32, ptr %90, align 4
  %92 = add i32 %91, %87
  store i32 %92, ptr %90, align 4
  br label %93

93:                                               ; preds = %84, %51, %43
  br label %94

94:                                               ; preds = %93, %38
  %95 = load i32, ptr %14, align 4
  %96 = icmp ne i32 %95, 0
  br i1 %96, label %97, label %195

97:                                               ; preds = %94
  call void @llvm.lifetime.start.p0(i64 8, ptr %18) #15
  %98 = load ptr, ptr %13, align 8
  %99 = getelementptr inbounds nuw %struct.rdp_field_info_t, ptr %98, i32 0, i32 4
  %100 = load i32, ptr %99, align 4
  %101 = and i32 %100, 2
  %102 = icmp ne i32 %101, 0
  br i1 %102, label %103, label %124

103:                                              ; preds = %97
  %104 = load ptr, ptr %13, align 8
  %105 = getelementptr inbounds nuw %struct.rdp_field_info_t, ptr %104, i32 0, i32 4
  %106 = load i32, ptr %105, align 4
  %107 = and i32 %106, 4
  %108 = icmp ne i32 %107, 0
  br i1 %108, label %109, label %110

109:                                              ; preds = %103
  store i32 -2147483644, ptr %17, align 4
  br label %123

110:                                              ; preds = %103
  %111 = load ptr, ptr %13, align 8
  %112 = getelementptr inbounds nuw %struct.rdp_field_info_t, ptr %111, i32 0, i32 4
  %113 = load i32, ptr %112, align 4
  %114 = and i32 %113, 8
  %115 = icmp ne i32 %114, 0
  br i1 %115, label %116, label %117

116:                                              ; preds = %110
  store i32 0, ptr %17, align 4
  br label %122

117:                                              ; preds = %110
  %118 = load i32, ptr %16, align 4
  %119 = and i32 %118, 16
  %120 = icmp ne i32 %119, 0
  %121 = select i1 %120, i32 -2147483644, i32 0
  store i32 %121, ptr %17, align 4
  br label %122

122:                                              ; preds = %117, %116
  br label %123

123:                                              ; preds = %122, %109
  br label %125

124:                                              ; preds = %97
  store i32 -2147483648, ptr %17, align 4
  br label %125

125:                                              ; preds = %124, %123
  %126 = load ptr, ptr %10, align 8
  %127 = load ptr, ptr %13, align 8
  %128 = getelementptr inbounds nuw %struct.rdp_field_info_t, ptr %127, i32 0, i32 0
  %129 = load ptr, ptr %128, align 8
  %130 = load i32, ptr %129, align 4
  %131 = load ptr, ptr %7, align 8
  %132 = load i32, ptr %8, align 4
  %133 = load i32, ptr %14, align 4
  %134 = load i32, ptr %17, align 4
  %135 = call ptr @proto_tree_add_item(ptr noundef %126, i32 noundef %130, ptr noundef %131, i32 noundef %132, i32 noundef %133, i32 noundef %134)
  store ptr %135, ptr %18, align 8
  %136 = load ptr, ptr %13, align 8
  %137 = getelementptr inbounds nuw %struct.rdp_field_info_t, ptr %136, i32 0, i32 4
  %138 = load i32, ptr %137, align 4
  %139 = and i32 %138, 64
  %140 = icmp ne i32 %139, 0
  br i1 %140, label %141, label %151

141:                                              ; preds = %125
  %142 = load i32, ptr %14, align 4
  %143 = icmp eq i32 %142, 4
  br i1 %143, label %144, label %145

144:                                              ; preds = %141
  br label %147

145:                                              ; preds = %141
  call void (ptr, ...) @proto_report_dissector_bug(ptr noundef @.str.719, ptr noundef @.str.720, i32 noundef 1447, ptr noundef @.str.721) #16
  unreachable

146:                                              ; No predecessors!
  br label %147

147:                                              ; preds = %146, %144
  %148 = load ptr, ptr %7, align 8
  %149 = load i32, ptr %8, align 4
  %150 = call i32 @tvb_get_letohl(ptr noundef %148, i32 noundef %149)
  store i32 %150, ptr %16, align 4
  br label %151

151:                                              ; preds = %147, %125
  %152 = load ptr, ptr %13, align 8
  %153 = getelementptr inbounds nuw %struct.rdp_field_info_t, ptr %152, i32 0, i32 4
  %154 = load i32, ptr %153, align 4
  %155 = and i32 %154, 32
  %156 = icmp ne i32 %155, 0
  br i1 %156, label %157, label %184

157:                                              ; preds = %151
  call void @llvm.lifetime.start.p0(i64 8, ptr %19) #15
  %158 = load ptr, ptr %13, align 8
  %159 = getelementptr inbounds nuw %struct.rdp_field_info_t, ptr %158, i32 0, i32 3
  %160 = load i32, ptr %159, align 8
  %161 = icmp ne i32 %160, -1
  br i1 %161, label %162, label %168

162:                                              ; preds = %157
  %163 = load ptr, ptr %18, align 8
  %164 = load ptr, ptr %13, align 8
  %165 = getelementptr inbounds nuw %struct.rdp_field_info_t, ptr %164, i32 0, i32 3
  %166 = load i32, ptr %165, align 8
  %167 = call ptr @proto_item_add_subtree(ptr noundef %163, i32 noundef %166)
  store ptr %167, ptr %19, align 8
  br label %169

168:                                              ; preds = %157
  call void (ptr, ...) @proto_report_dissector_bug(ptr noundef @.str.722) #16
  unreachable

169:                                              ; preds = %162
  %170 = load ptr, ptr %13, align 8
  %171 = getelementptr inbounds nuw %struct.rdp_field_info_t, ptr %170, i32 0, i32 5
  %172 = load ptr, ptr %171, align 8
  %173 = icmp ne ptr %172, null
  br i1 %173, label %174, label %183

174:                                              ; preds = %169
  %175 = load ptr, ptr %7, align 8
  %176 = load i32, ptr %8, align 4
  %177 = load ptr, ptr %9, align 8
  %178 = load ptr, ptr %19, align 8
  %179 = load ptr, ptr %13, align 8
  %180 = getelementptr inbounds nuw %struct.rdp_field_info_t, ptr %179, i32 0, i32 5
  %181 = load ptr, ptr %180, align 8
  %182 = call i32 @dissect_rdp_fields(ptr noundef %175, i32 noundef %176, ptr noundef %177, ptr noundef %178, ptr noundef %181, i32 noundef 0)
  br label %183

183:                                              ; preds = %174, %169
  call void @llvm.lifetime.end.p0(i64 8, ptr %19) #15
  br label %184

184:                                              ; preds = %183, %151
  %185 = load ptr, ptr %13, align 8
  %186 = getelementptr inbounds nuw %struct.rdp_field_info_t, ptr %185, i32 0, i32 4
  %187 = load i32, ptr %186, align 4
  %188 = and i32 %187, 16
  %189 = icmp ne i32 %188, 0
  br i1 %189, label %194, label %190

190:                                              ; preds = %184
  %191 = load i32, ptr %14, align 4
  %192 = load i32, ptr %8, align 4
  %193 = add i32 %192, %191
  store i32 %193, ptr %8, align 4
  br label %194

194:                                              ; preds = %190, %184
  call void @llvm.lifetime.end.p0(i64 8, ptr %18) #15
  br label %195

195:                                              ; preds = %194, %94
  %196 = load i32, ptr %12, align 4
  %197 = icmp sgt i32 %196, 0
  br i1 %197, label %198, label %205

198:                                              ; preds = %195
  %199 = load i32, ptr %8, align 4
  %200 = load i32, ptr %15, align 4
  %201 = sub i32 %199, %200
  %202 = load i32, ptr %12, align 4
  %203 = icmp sge i32 %201, %202
  br i1 %203, label %204, label %205

204:                                              ; preds = %198
  br label %209

205:                                              ; preds = %198, %195
  br label %206

206:                                              ; preds = %205
  %207 = load ptr, ptr %11, align 8
  %208 = getelementptr %struct.rdp_field_info_t, ptr %207, i32 1
  store ptr %208, ptr %11, align 8
  br label %22, !llvm.loop !8

209:                                              ; preds = %204, %22
  %210 = load ptr, ptr %9, align 8
  call void @decrement_dissection_depth(ptr noundef %210)
  %211 = load i32, ptr %8, align 4
  call void @llvm.lifetime.end.p0(i64 4, ptr %17) #15
  call void @llvm.lifetime.end.p0(i64 4, ptr %16) #15
  call void @llvm.lifetime.end.p0(i64 4, ptr %15) #15
  call void @llvm.lifetime.end.p0(i64 4, ptr %14) #15
  call void @llvm.lifetime.end.p0(i64 8, ptr %13) #15
  ret i32 %211
}