; Function Attrs: null_pointer_is_valid sspstrong uwtable
define internal fastcc i32 @dissect_rdp_fields(ptr noundef %0, i32 noundef %1, ptr noundef %2, ptr noundef %3, ptr noundef readonly captures(none) %4, i32 noundef %5) unnamed_addr #0 {
  tail call void @increment_dissection_depth(ptr noundef %2)
  %7 = load ptr, ptr %4, align 8
  %.not85 = icmp eq ptr %7, null
  br i1 %.not85, label %._crit_edge, label %.lr.ph

.lr.ph:                                           ; preds = %6
  %8 = icmp slt i32 %5, 1
  br label %12

9:                                                ; preds = %.thread96
  %10 = getelementptr i8, ptr %.05687, i64 40
  %11 = load ptr, ptr %10, align 8
  %.not = icmp eq ptr %11, null
  br i1 %.not, label %._crit_edge, label %12, !llvm.loop !6

12:                                               ; preds = %.lr.ph, %9
  %.088 = phi i32 [ %1, %.lr.ph ], [ %.2, %9 ]
  %.05687 = phi ptr [ %4, %.lr.ph ], [ %10, %9 ]
  %.05886 = phi i32 [ 0, %.lr.ph ], [ %.159, %9 ]
  %13 = getelementptr inbounds nuw i8, ptr %.05687, i64 8
  %14 = load i32, ptr %13, align 8
  %15 = icmp eq i32 %14, 0
  %16 = getelementptr inbounds nuw i8, ptr %.05687, i64 16
  %17 = load ptr, ptr %16, align 8
  br i1 %15, label %18, label %19

18:                                               ; preds = %12
  %.not68 = icmp eq ptr %17, null
  br i1 %.not68, label %.thread96, label %39

19:                                               ; preds = %12
  %20 = icmp ne ptr %17, null
  %21 = getelementptr inbounds nuw i8, ptr %.05687, i64 16
  %22 = icmp slt i32 %14, 5
  %or.cond = and i1 %22, %20
  br i1 %or.cond, label %23, label %.thread99

23:                                               ; preds = %19
  switch i32 %14, label %32 [
    i32 1, label %24
    i32 2, label %27
    i32 4, label %30
  ]

24:                                               ; preds = %23
  %25 = tail call zeroext i8 @tvb_get_uint8(ptr noundef %0, i32 noundef %.088)
  %26 = zext i8 %25 to i32
  br label %.thread

27:                                               ; preds = %23
  %28 = tail call zeroext i16 @tvb_get_letohs(ptr noundef %0, i32 noundef %.088)
  %29 = zext i16 %28 to i32
  br label %.thread

30:                                               ; preds = %23
  %31 = tail call i32 @tvb_get_letohl(ptr noundef %0, i32 noundef %.088)
  br label %.thread

32:                                               ; preds = %23
  tail call void (ptr, ...) @proto_report_dissector_bug(ptr noundef nonnull @.str.696) #15
  unreachable

.thread:                                          ; preds = %24, %27, %30
  %.sink = phi i32 [ %26, %24 ], [ %29, %27 ], [ %31, %30 ]
  %33 = load ptr, ptr %21, align 8
  store i32 %.sink, ptr %33, align 4
  %34 = getelementptr inbounds nuw i8, ptr %.05687, i64 24
  %35 = load i32, ptr %34, align 8
  %36 = load ptr, ptr %21, align 8
  %37 = load i32, ptr %36, align 4
  %38 = add i32 %37, %35
  store i32 %38, ptr %36, align 4
  br label %.thread99

39:                                               ; preds = %18
  %40 = load i32, ptr %17, align 4
  %.not70 = icmp eq i32 %40, 0
  br i1 %.not70, label %.thread96, label %.thread99

.thread99:                                        ; preds = %19, %.thread, %39
  %.06184 = phi i32 [ %14, %.thread ], [ %40, %39 ], [ %14, %19 ]
  %41 = getelementptr inbounds nuw i8, ptr %.05687, i64 28
  %42 = load i32, ptr %41, align 4
  %43 = and i32 %42, 2
  %.not71 = icmp eq i32 %43, 0
  br i1 %.not71, label %51, label %44

44:                                               ; preds = %.thread99
  %45 = and i32 %42, 4
  %.not72 = icmp eq i32 %45, 0
  br i1 %.not72, label %46, label %51

46:                                               ; preds = %44
  %47 = and i32 %42, 8
  %.not73 = icmp eq i32 %47, 0
  br i1 %.not73, label %48, label %51

48:                                               ; preds = %46
  %49 = and i32 %.05886, 16
  %.not74 = icmp eq i32 %49, 0
  %50 = select i1 %.not74, i32 0, i32 -2147483644
  br label %51

51:                                               ; preds = %.thread99, %46, %44, %48
  %.057 = phi i32 [ %50, %48 ], [ -2147483644, %44 ], [ 0, %46 ], [ -2147483648, %.thread99 ]
  %52 = load ptr, ptr %.05687, align 8
  %53 = load i32, ptr %52, align 4
  %54 = tail call ptr @proto_tree_add_item(ptr noundef %3, i32 noundef %53, ptr noundef %0, i32 noundef %.088, i32 noundef %.06184, i32 noundef %.057)
  %55 = load i32, ptr %41, align 4
  %56 = and i32 %55, 64
  %.not75 = icmp eq i32 %56, 0
  br i1 %.not75, label %62, label %57

57:                                               ; preds = %51
  %58 = icmp eq i32 %.06184, 4
  br i1 %58, label %60, label %59

59:                                               ; preds = %57
  tail call void (ptr, ...) @proto_report_dissector_bug(ptr noundef nonnull @.str.719, ptr noundef nonnull @.str.720, i32 noundef 1447, ptr noundef nonnull @.str.721) #15
  unreachable

60:                                               ; preds = %57
  %61 = tail call i32 @tvb_get_letohl(ptr noundef %0, i32 noundef %.088)
  %.pre92 = load i32, ptr %41, align 4
  br label %62

62:                                               ; preds = %60, %51
  %63 = phi i32 [ %.pre92, %60 ], [ %55, %51 ]
  %.260 = phi i32 [ %61, %60 ], [ %.05886, %51 ]
  %64 = and i32 %63, 32
  %.not76 = icmp eq i32 %64, 0
  br i1 %.not76, label %75, label %65

65:                                               ; preds = %62
  %66 = getelementptr inbounds nuw i8, ptr %.05687, i64 24
  %67 = load i32, ptr %66, align 8
  %.not77 = icmp eq i32 %67, -1
  br i1 %.not77, label %72, label %68

68:                                               ; preds = %65
  %69 = tail call ptr @proto_item_add_subtree(ptr noundef %54, i32 noundef %67)
  %70 = getelementptr inbounds nuw i8, ptr %.05687, i64 32
  %71 = load ptr, ptr %70, align 8
  %.not78 = icmp eq ptr %71, null
  br i1 %.not78, label %75, label %73

72:                                               ; preds = %65
  tail call void (ptr, ...) @proto_report_dissector_bug(ptr noundef nonnull @.str.722) #15
  unreachable

73:                                               ; preds = %68
  %74 = tail call fastcc i32 @dissect_rdp_fields(ptr noundef %0, i32 noundef %.088, ptr noundef %2, ptr noundef %69, ptr noundef nonnull %71, i32 noundef 0)
  br label %75

75:                                               ; preds = %68, %73, %62
  %76 = load i32, ptr %41, align 4
  %77 = and i32 %76, 16
  %.not79 = icmp eq i32 %77, 0
  %78 = select i1 %.not79, i32 %.06184, i32 0
  %spec.select = add i32 %78, %.088
  br label %.thread96

.thread96:                                        ; preds = %18, %75, %39
  %.159 = phi i32 [ %.260, %75 ], [ %.05886, %39 ], [ %.05886, %18 ]
  %.2 = phi i32 [ %spec.select, %75 ], [ %.088, %39 ], [ %.088, %18 ]
  %79 = sub i32 %.2, %1
  %.not80 = icmp slt i32 %79, %5
  %or.cond81 = select i1 %8, i1 true, i1 %.not80
  br i1 %or.cond81, label %9, label %._crit_edge

._crit_edge:                                      ; preds = %9, %.thread96, %6
  %.1 = phi i32 [ %1, %6 ], [ %.2, %.thread96 ], [ %.2, %9 ]
  tail call void @decrement_dissection_depth(ptr noundef %2)
  ret i32 %.1
}